ccopy_reg
_reconstructor
p0
(csklearn.preprocessing._encoders
OneHotEncoder
p1
c__builtin__
object
p2
Ntp3
Rp4
(dp5
Vcategories
p6
Vauto
p7
sVsparse
p8
I01
sVdtype
p9
Vint
p10
sVhandle_unknown
p11
Verror
p12
sVdrop
p13
NsVcategories_
p14
(lp15
cnumpy.core.multiarray
_reconstruct
p16
(cnumpy
ndarray
p17
(L0L
tp18
c_codecs
encode
p19
(Vb
p20
Vlatin1
p21
tp22
Rp23
tp24
Rp25
(L1L
(L5L
tp26
cnumpy
dtype
p27
(VO8
p28
L0L
L1L
tp29
Rp30
(L3L
V|
p31
NNNL-1L
L-1L
L63L
tp32
bI00
(lp33
VA30
p34
aVA31
p35
aVA32
p36
aVA33
p37
aVA34
p38
atp39
bag16
(g17
(L0L
tp40
g23
tp41
Rp42
(L1L
(L10L
tp43
g30
I00
(lp44
VA40
p45
aVA41
p46
aVA410
p47
aVA42
p48
aVA43
p49
aVA44
p50
aVA45
p51
aVA46
p52
aVA48
p53
aVA49
p54
atp55
bag16
(g17
(L0L
tp56
g23
tp57
Rp58
(L1L
(L4L
tp59
g30
I00
(lp60
VA91
p61
aVA92
p62
aVA93
p63
aVA94
p64
atp65
bag16
(g17
(L0L
tp66
g23
tp67
Rp68
(L1L
(L3L
tp69
g30
I00
(lp70
VA101
p71
aVA102
p72
aVA103
p73
atp74
bag16
(g17
(L0L
tp75
g23
tp76
Rp77
(L1L
(L3L
tp78
g30
I00
(lp79
VA141
p80
aVA142
p81
aVA143
p82
atp83
bag16
(g17
(L0L
tp84
g23
tp85
Rp86
(L1L
(L3L
tp87
g30
I00
(lp88
VA151
p89
aVA152
p90
aVA153
p91
atp92
bag16
(g17
(L0L
tp93
g23
tp94
Rp95
(L1L
(L4L
tp96
g30
I00
(lp97
VA171
p98
aVA172
p99
aVA173
p100
aVA174
p101
atp102
bag16
(g17
(L0L
tp103
g23
tp104
Rp105
(L1L
(L2L
tp106
g30
I00
(lp107
VA191
p108
aVA192
p109
atp110
bag16
(g17
(L0L
tp111
g23
tp112
Rp113
(L1L
(L2L
tp114
g30
I00
(lp115
VA201
p116
aVA202
p117
atp118
basVdrop_idx_
p119
NsV_sklearn_version
p120
V0.23.2
p121
sb.